; Function Attrs: nounwind uwtable
define noalias ptr @l___private_Lean_Meta_Tactic_Grind_EMatchTheorem_0__Lean_Meta_Grind_addGrindEqAttr___lambda__1(ptr noundef readonly captures(none) %0, i8 noundef zeroext %1, ptr noundef readnone captures(none) %2, ptr noundef readnone captures(none) %3, ptr noundef %4, ptr noundef %5, ptr noundef %6, ptr noundef %7) local_unnamed_addr #1 {
lean_nat_lt.exit:
  %8 = getelementptr i8, ptr %0, i64 8
  %.val = load i64, ptr %8, align 8, !tbaa !12
  %.mask = and i64 %.val, 9223372036854775807
  %.not = icmp eq i64 %.mask, 0
  br i1 %.not, label %lean_dec.exit37, label %lean_dec.exit

lean_dec.exit37:                                  ; preds = %lean_nat_lt.exit
  %9 = ptrtoint ptr %5 to i64
  %10 = and i64 %9, 1
  %.not50 = icmp eq i64 %10, 0
  br i1 %.not50, label %11, label %lean_dec.exit36

11:                                               ; preds = %lean_dec.exit37
  %12 = load i32, ptr %5, align 4, !tbaa !4
  %13 = icmp sgt i32 %12, 1
  br i1 %13, label %14, label %16, !prof !11

14:                                               ; preds = %11
  %15 = add nsw i32 %12, -1
  store i32 %15, ptr %5, align 4, !tbaa !4
  br label %lean_dec.exit36

16:                                               ; preds = %11
  %.not.i38 = icmp eq i32 %12, 0
  br i1 %.not.i38, label %lean_dec.exit36, label %17

17:                                               ; preds = %16
  tail call void @lean_dec_ref_cold(ptr noundef nonnull %5) #9
  br label %lean_dec.exit36

lean_dec.exit36:                                  ; preds = %17, %16, %14, %lean_dec.exit37
  tail call void @lean_inc_heartbeat() #9
  %18 = tail call noalias ptr @mi_malloc_small(i64 noundef 24) #9
  %19 = icmp eq ptr %18, null
  br i1 %19, label %20, label %lean_alloc_ctor.exit

20:                                               ; preds = %lean_dec.exit36
  tail call void @lean_internal_panic_out_of_memory() #10
  unreachable

lean_alloc_ctor.exit:                             ; preds = %lean_dec.exit36
  %21 = getelementptr inbounds nuw i8, ptr %18, i64 4
  store i32 1, ptr %18, align 4, !tbaa !4
  store i32 131096, ptr %21, align 4
  %22 = getelementptr inbounds nuw i8, ptr %18, i64 8
  store ptr inttoptr (i64 1 to ptr), ptr %22, align 8, !tbaa !9
  %23 = getelementptr inbounds nuw i8, ptr %18, i64 16
  store ptr %7, ptr %23, align 8, !tbaa !9
  br label %25

lean_dec.exit:                                    ; preds = %lean_nat_lt.exit
  %24 = tail call ptr @l_Array_foldlMUnsafe_fold___at___private_Lean_Meta_Tactic_Grind_EMatchTheorem_0__Lean_Meta_Grind_addGrindEqAttr___spec__1(i8 noundef zeroext %1, ptr noundef nonnull %0, i64 noundef 0, i64 noundef %.mask, ptr noundef nonnull inttoptr (i64 1 to ptr), ptr poison, ptr noundef %4, ptr noundef %5, ptr noundef %6, ptr noundef %7)
  br label %25

25:                                               ; preds = %lean_dec.exit, %lean_alloc_ctor.exit
  %.0 = phi ptr [ %18, %lean_alloc_ctor.exit ], [ %24, %lean_dec.exit ]
  ret ptr %.0
}